target datalayout = "e-m:e-p270:32:32-p271:32:32-p272:64:64-i64:64-i128:128-f80:128-n8:16:32:64-S128"
target triple = "x86_64-pc-linux-gnu"

%struct.Aig_RMan_t_ = type { i32, ptr, i32, ptr, i32, ptr, ptr, [128 x i32], [128 x i32], [128 x i32], [128 x i32], [24 x %struct.Aig_VSig_t_], [12 x i8], [12 x i8], [13 x i32], i32, i32, i32, i32, i32 }
%struct.Aig_VSig_t_ = type { i32, [12 x i32] }
%struct.Aig_Tru_t_ = type { ptr, i32, i32, [0 x i32] }
%struct.timespec = type { i64, i64 }

@Aig_RManTableLookup.s_Primes = internal global [16 x i32] [i32 1291, i32 1699, i32 1999, i32 2357, i32 2953, i32 3313, i32 3907, i32 4177, i32 4831, i32 5147, i32 5647, i32 6343, i32 6899, i32 7103, i32 7873, i32 8147], align 16

; Function Attrs: inlinehint nounwind uwtable
define internal i32 @Kit_TruthWordNum(i32 noundef %0) #5 {
  %2 = alloca i32, align 4
  store i32 %0, ptr %2, align 4, !tbaa !25
  %3 = load i32, ptr %2, align 4, !tbaa !25
  %4 = icmp sle i32 %3, 5
  br i1 %4, label %5, label %6

5:                                                ; preds = %1
  br label %10

6:                                                ; preds = %1
  %7 = load i32, ptr %2, align 4, !tbaa !25
  %8 = sub nsw i32 %7, 5
  %9 = shl i32 1, %8
  br label %10

10:                                               ; preds = %6, %5
  %11 = phi i32 [ 1, %5 ], [ %9, %6 ]
  ret i32 %11
}

; Function Attrs: inlinehint nounwind uwtable
define internal i32 @Kit_TruthIsEqual(ptr noundef %0, ptr noundef %1, i32 noundef %2) #5 {
  %4 = alloca i32, align 4
  %5 = alloca ptr, align 8
  %6 = alloca ptr, align 8
  %7 = alloca i32, align 4
  %8 = alloca i32, align 4
  %9 = alloca i32, align 4
  store ptr %0, ptr %5, align 8, !tbaa !29
  store ptr %1, ptr %6, align 8, !tbaa !29
  store i32 %2, ptr %7, align 4, !tbaa !25
  call void @llvm.lifetime.start.p0(i64 4, ptr %8) #10
  %10 = load i32, ptr %7, align 4, !tbaa !25
  %11 = call i32 @Kit_TruthWordNum(i32 noundef %10)
  %12 = sub nsw i32 %11, 1
  store i32 %12, ptr %8, align 4, !tbaa !25
  br label %13

13:                                               ; preds = %30, %3
  %14 = load i32, ptr %8, align 4, !tbaa !25
  %15 = icmp sge i32 %14, 0
  br i1 %15, label %16, label %33

16:                                               ; preds = %13
  %17 = load ptr, ptr %5, align 8, !tbaa !29
  %18 = load i32, ptr %8, align 4, !tbaa !25
  %19 = sext i32 %18 to i64
  %20 = getelementptr inbounds i32, ptr %17, i64 %19
  %21 = load i32, ptr %20, align 4, !tbaa !25
  %22 = load ptr, ptr %6, align 8, !tbaa !29
  %23 = load i32, ptr %8, align 4, !tbaa !25
  %24 = sext i32 %23 to i64
  %25 = getelementptr inbounds i32, ptr %22, i64 %24
  %26 = load i32, ptr %25, align 4, !tbaa !25
  %27 = icmp ne i32 %21, %26
  br i1 %27, label %28, label %29

28:                                               ; preds = %16
  store i32 0, ptr %4, align 4
  store i32 1, ptr %9, align 4
  br label %34

29:                                               ; preds = %16
  br label %30

30:                                               ; preds = %29
  %31 = load i32, ptr %8, align 4, !tbaa !25
  %32 = add nsw i32 %31, -1
  store i32 %32, ptr %8, align 4, !tbaa !25
  br label %13, !llvm.loop !38

33:                                               ; preds = %13
  store i32 1, ptr %4, align 4
  store i32 1, ptr %9, align 4
  br label %34

34:                                               ; preds = %33, %28
  call void @llvm.lifetime.end.p0(i64 4, ptr %8) #10
  %35 = load i32, ptr %4, align 4
  ret i32 %35
}

; Function Attrs: inlinehint nounwind uwtable
define internal i32 @Aig_RManTableHash(ptr noundef %0, i32 noundef %1, i32 noundef %2, ptr noundef %3) #5 {
  %5 = alloca ptr, align 8
  %6 = alloca i32, align 4
  %7 = alloca i32, align 4
  %8 = alloca ptr, align 8
  %9 = alloca i32, align 4
  %10 = alloca i32, align 4
  %11 = alloca i32, align 4
  store ptr %0, ptr %5, align 8, !tbaa !29
  store i32 %1, ptr %6, align 4, !tbaa !25
  store i32 %2, ptr %7, align 4, !tbaa !25
  store ptr %3, ptr %8, align 8, !tbaa !29
  call void @llvm.lifetime.start.p0(i64 4, ptr %9) #10
  call void @llvm.lifetime.start.p0(i64 4, ptr %10) #10
  %12 = load i32, ptr %6, align 4, !tbaa !25
  %13 = call i32 @Kit_TruthWordNum(i32 noundef %12)
  store i32 %13, ptr %10, align 4, !tbaa !25
  call void @llvm.lifetime.start.p0(i64 4, ptr %11) #10
  store i32 0, ptr %11, align 4, !tbaa !25
  store i32 0, ptr %9, align 4, !tbaa !25
  br label %14

14:                                               ; preds = %33, %4
  %15 = load i32, ptr %9, align 4, !tbaa !25
  %16 = load i32, ptr %10, align 4, !tbaa !25
  %17 = icmp slt i32 %15, %16
  br i1 %17, label %18, label %36

18:                                               ; preds = %14
  %19 = load ptr, ptr %5, align 8, !tbaa !29
  %20 = load i32, ptr %9, align 4, !tbaa !25
  %21 = sext i32 %20 to i64
  %22 = getelementptr inbounds i32, ptr %19, i64 %21
  %23 = load i32, ptr %22, align 4, !tbaa !25
  %24 = load ptr, ptr %8, align 8, !tbaa !29
  %25 = load i32, ptr %9, align 4, !tbaa !25
  %26 = and i32 %25, 15
  %27 = sext i32 %26 to i64
  %28 = getelementptr inbounds i32, ptr %24, i64 %27
  %29 = load i32, ptr %28, align 4, !tbaa !25
  %30 = mul i32 %23, %29
  %31 = load i32, ptr %11, align 4, !tbaa !25
  %32 = xor i32 %31, %30
  store i32 %32, ptr %11, align 4, !tbaa !25
  br label %33

33:                                               ; preds = %18
  %34 = load i32, ptr %9, align 4, !tbaa !25
  %35 = add nsw i32 %34, 1
  store i32 %35, ptr %9, align 4, !tbaa !25
  br label %14, !llvm.loop !37

36:                                               ; preds = %14
  %37 = load i32, ptr %11, align 4, !tbaa !25
  %38 = load i32, ptr %7, align 4, !tbaa !25
  %39 = urem i32 %37, %38
  call void @llvm.lifetime.end.p0(i64 4, ptr %11) #10
  call void @llvm.lifetime.end.p0(i64 4, ptr %10) #10
  call void @llvm.lifetime.end.p0(i64 4, ptr %9) #10
  ret i32 %39
}

; Function Attrs: nounwind uwtable
define ptr @Aig_RManTableLookup(ptr noundef %0, ptr noundef %1, i32 noundef %2) #0 {
  %4 = alloca ptr, align 8
  %5 = alloca ptr, align 8
  %6 = alloca ptr, align 8
  %7 = alloca i32, align 4
  %8 = alloca ptr, align 8
  %9 = alloca ptr, align 8
  %10 = alloca i32, align 4
  store ptr %0, ptr %5, align 8, !tbaa !3
  store ptr %1, ptr %6, align 8, !tbaa !29
  store i32 %2, ptr %7, align 4, !tbaa !25
  call void @llvm.lifetime.start.p0(i64 8, ptr %8) #10
  call void @llvm.lifetime.start.p0(i64 8, ptr %9) #10
  %11 = load ptr, ptr %5, align 8, !tbaa !3
  %12 = getelementptr inbounds nuw %struct.Aig_RMan_t_, ptr %11, i32 0, i32 3
  %13 = load ptr, ptr %12, align 8, !tbaa !17
  %14 = load ptr, ptr %6, align 8, !tbaa !29
  %15 = load i32, ptr %7, align 4, !tbaa !25
  %16 = load ptr, ptr %5, align 8, !tbaa !3
  %17 = getelementptr inbounds nuw %struct.Aig_RMan_t_, ptr %16, i32 0, i32 2
  %18 = load i32, ptr %17, align 8, !tbaa !16
  %19 = call i32 @Aig_RManTableHash(ptr noundef %14, i32 noundef %15, i32 noundef %18, ptr noundef @Aig_RManTableLookup.s_Primes)
  %20 = sext i32 %19 to i64
  %21 = getelementptr inbounds ptr, ptr %13, i64 %20
  store ptr %21, ptr %8, align 8, !tbaa !31
  %22 = load ptr, ptr %8, align 8, !tbaa !31
  %23 = load ptr, ptr %22, align 8, !tbaa !32
  store ptr %23, ptr %9, align 8, !tbaa !32
  br label %24

24:                                               ; preds = %38, %3
  %25 = load ptr, ptr %9, align 8, !tbaa !32
  %26 = icmp ne ptr %25, null
  br i1 %26, label %27, label %44

27:                                               ; preds = %24
  %28 = load ptr, ptr %9, align 8, !tbaa !32
  %29 = getelementptr inbounds nuw %struct.Aig_Tru_t_, ptr %28, i32 0, i32 3
  %30 = getelementptr inbounds [0 x i32], ptr %29, i64 0, i64 0
  %31 = load ptr, ptr %6, align 8, !tbaa !29
  %32 = load i32, ptr %7, align 4, !tbaa !25
  %33 = call i32 @Kit_TruthIsEqual(ptr noundef %30, ptr noundef %31, i32 noundef %32)
  %34 = icmp ne i32 %33, 0
  br i1 %34, label %35, label %37

35:                                               ; preds = %27
  %36 = load ptr, ptr %8, align 8, !tbaa !31
  store ptr %36, ptr %4, align 8
  store i32 1, ptr %10, align 4
  br label %46

37:                                               ; preds = %27
  br label %38

38:                                               ; preds = %37
  %39 = load ptr, ptr %9, align 8, !tbaa !32
  %40 = getelementptr inbounds nuw %struct.Aig_Tru_t_, ptr %39, i32 0, i32 0
  store ptr %40, ptr %8, align 8, !tbaa !31
  %41 = load ptr, ptr %9, align 8, !tbaa !32
  %42 = getelementptr inbounds nuw %struct.Aig_Tru_t_, ptr %41, i32 0, i32 0
  %43 = load ptr, ptr %42, align 8, !tbaa !34
  store ptr %43, ptr %9, align 8, !tbaa !32
  br label %24, !llvm.loop !36

44:                                               ; preds = %24
  %45 = load ptr, ptr %8, align 8, !tbaa !31
  store ptr %45, ptr %4, align 8
  store i32 1, ptr %10, align 4
  br label %46

46:                                               ; preds = %44, %35
  call void @llvm.lifetime.end.p0(i64 8, ptr %9) #10
  call void @llvm.lifetime.end.p0(i64 8, ptr %8) #10
  %47 = load ptr, ptr %4, align 8
  ret ptr %47
}

; Function Attrs: inlinehint nounwind uwtable
define internal i32 @Abc_PrimeCudd(i32 noundef %0) #5 {
  %2 = alloca i32, align 4
  %3 = alloca i32, align 4
  %4 = alloca i32, align 4
  store i32 %0, ptr %2, align 4, !tbaa !25
  call void @llvm.lifetime.start.p0(i64 4, ptr %3) #10
  call void @llvm.lifetime.start.p0(i64 4, ptr %4) #10
  %5 = load i32, ptr %2, align 4, !tbaa !25
  %6 = add i32 %5, -1
  store i32 %6, ptr %2, align 4, !tbaa !25
  br label %7

7:                                                ; preds = %32, %1
  %8 = load i32, ptr %2, align 4, !tbaa !25
  %9 = add i32 %8, 1
  store i32 %9, ptr %2, align 4, !tbaa !25
  %10 = load i32, ptr %2, align 4, !tbaa !25
  %11 = and i32 %10, 1
  %12 = icmp ne i32 %11, 0
  br i1 %12, label %13, label %30

13:                                               ; preds = %7
  store i32 1, ptr %4, align 4, !tbaa !25
  store i32 3, ptr %3, align 4, !tbaa !25
  br label %14

14:                                               ; preds = %26, %13
  %15 = load i32, ptr %3, align 4, !tbaa !25
  %16 = load i32, ptr %3, align 4, !tbaa !25
  %17 = mul nsw i32 %15, %16
  %18 = load i32, ptr %2, align 4, !tbaa !25
  %19 = icmp ule i32 %17, %18
  br i1 %19, label %20, label %29

20:                                               ; preds = %14
  %21 = load i32, ptr %2, align 4, !tbaa !25
  %22 = load i32, ptr %3, align 4, !tbaa !25
  %23 = urem i32 %21, %22
  %24 = icmp eq i32 %23, 0
  br i1 %24, label %25, label %26

25:                                               ; preds = %20
  store i32 0, ptr %4, align 4, !tbaa !25
  br label %29

26:                                               ; preds = %20
  %27 = load i32, ptr %3, align 4, !tbaa !25
  %28 = add nsw i32 %27, 2
  store i32 %28, ptr %3, align 4, !tbaa !25
  br label %14, !llvm.loop !26

29:                                               ; preds = %25, %14
  br label %31

30:                                               ; preds = %7
  store i32 0, ptr %4, align 4, !tbaa !25
  br label %31

31:                                               ; preds = %30, %29
  br label %32

32:                                               ; preds = %31
  %33 = load i32, ptr %4, align 4, !tbaa !25
  %34 = icmp ne i32 %33, 0
  %35 = xor i1 %34, true
  br i1 %35, label %7, label %36, !llvm.loop !28

36:                                               ; preds = %32
  %37 = load i32, ptr %2, align 4, !tbaa !25
  call void @llvm.lifetime.end.p0(i64 4, ptr %4) #10
  call void @llvm.lifetime.end.p0(i64 4, ptr %3) #10
  ret i32 %37
}

; Function Attrs: inlinehint nounwind uwtable
define internal i64 @Abc_Clock() #5 {
  %1 = alloca i64, align 8
  %2 = alloca %struct.timespec, align 8
  %3 = alloca i32, align 4
  %4 = alloca i64, align 8
  call void @llvm.lifetime.start.p0(i64 16, ptr %2) #10
  %5 = call i32 @clock_gettime(i32 noundef 1, ptr noundef %2) #10
  %6 = icmp slt i32 %5, 0
  br i1 %6, label %7, label %8

7:                                                ; preds = %0
  store i64 -1, ptr %1, align 8
  store i32 1, ptr %3, align 4
  br label %19

8:                                                ; preds = %0
  call void @llvm.lifetime.start.p0(i64 8, ptr %4) #10
  %9 = getelementptr inbounds nuw %struct.timespec, ptr %2, i32 0, i32 0
  %10 = load i64, ptr %9, align 8, !tbaa !98
  %11 = mul nsw i64 %10, 1000000
  store i64 %11, ptr %4, align 8, !tbaa !39
  %12 = getelementptr inbounds nuw %struct.timespec, ptr %2, i32 0, i32 1
  %13 = load i64, ptr %12, align 8, !tbaa !100
  %14 = mul nsw i64 %13, 1000000
  %15 = sdiv i64 %14, 1000000000
  %16 = load i64, ptr %4, align 8, !tbaa !39
  %17 = add nsw i64 %16, %15
  store i64 %17, ptr %4, align 8, !tbaa !39
  %18 = load i64, ptr %4, align 8, !tbaa !39
  store i64 %18, ptr %1, align 8
  store i32 1, ptr %3, align 4
  call void @llvm.lifetime.end.p0(i64 8, ptr %4) #10
  br label %19

19:                                               ; preds = %8, %7
  call void @llvm.lifetime.end.p0(i64 16, ptr %2) #10
  %20 = load i64, ptr %1, align 8
  ret i64 %20
}

; Function Attrs: nounwind uwtable
define void @Aig_RManTableResize(ptr noundef %0) #0 {
  %2 = alloca ptr, align 8
  %3 = alloca ptr, align 8
  %4 = alloca ptr, align 8
  %5 = alloca ptr, align 8
  %6 = alloca ptr, align 8
  %7 = alloca i32, align 4
  %8 = alloca i32, align 4
  %9 = alloca i32, align 4
  %10 = alloca i64, align 8
  store ptr %0, ptr %2, align 8, !tbaa !3
  call void @llvm.lifetime.start.p0(i64 8, ptr %3) #10
  call void @llvm.lifetime.start.p0(i64 8, ptr %4) #10
  call void @llvm.lifetime.start.p0(i64 8, ptr %5) #10
  call void @llvm.lifetime.start.p0(i64 8, ptr %6) #10
  call void @llvm.lifetime.start.p0(i64 4, ptr %7) #10
  call void @llvm.lifetime.start.p0(i64 4, ptr %8) #10
  call void @llvm.lifetime.start.p0(i64 4, ptr %9) #10
  call void @llvm.lifetime.start.p0(i64 8, ptr %10) #10
  %11 = call i64 @Abc_Clock()
  store i64 %11, ptr %10, align 8, !tbaa !39
  %12 = load ptr, ptr %2, align 8, !tbaa !3
  %13 = getelementptr inbounds nuw %struct.Aig_RMan_t_, ptr %12, i32 0, i32 3
  %14 = load ptr, ptr %13, align 8, !tbaa !17
  store ptr %14, ptr %5, align 8, !tbaa !31
  %15 = load ptr, ptr %2, align 8, !tbaa !3
  %16 = getelementptr inbounds nuw %struct.Aig_RMan_t_, ptr %15, i32 0, i32 2
  %17 = load i32, ptr %16, align 8, !tbaa !16
  store i32 %17, ptr %7, align 4, !tbaa !25
  %18 = load i32, ptr %7, align 4, !tbaa !25
  %19 = mul nsw i32 3, %18
  %20 = call i32 @Abc_PrimeCudd(i32 noundef %19)
  %21 = load ptr, ptr %2, align 8, !tbaa !3
  %22 = getelementptr inbounds nuw %struct.Aig_RMan_t_, ptr %21, i32 0, i32 2
  store i32 %20, ptr %22, align 8, !tbaa !16
  %23 = load ptr, ptr %2, align 8, !tbaa !3
  %24 = getelementptr inbounds nuw %struct.Aig_RMan_t_, ptr %23, i32 0, i32 2
  %25 = load i32, ptr %24, align 8, !tbaa !16
  %26 = sext i32 %25 to i64
  %27 = call noalias ptr @calloc(i64 noundef %26, i64 noundef 8) #12
  %28 = load ptr, ptr %2, align 8, !tbaa !3
  %29 = getelementptr inbounds nuw %struct.Aig_RMan_t_, ptr %28, i32 0, i32 3
  store ptr %27, ptr %29, align 8, !tbaa !17
  store i32 0, ptr %8, align 4, !tbaa !25
  store i32 0, ptr %9, align 4, !tbaa !25
  br label %30

30:                                               ; preds = %80, %1
  %31 = load i32, ptr %9, align 4, !tbaa !25
  %32 = load i32, ptr %7, align 4, !tbaa !25
  %33 = icmp slt i32 %31, %32
  br i1 %33, label %34, label %83

34:                                               ; preds = %30
  %35 = load ptr, ptr %5, align 8, !tbaa !31
  %36 = load i32, ptr %9, align 4, !tbaa !25
  %37 = sext i32 %36 to i64
  %38 = getelementptr inbounds ptr, ptr %35, i64 %37
  %39 = load ptr, ptr %38, align 8, !tbaa !32
  store ptr %39, ptr %3, align 8, !tbaa !32
  %40 = load ptr, ptr %3, align 8, !tbaa !32
  %41 = icmp ne ptr %40, null
  br i1 %41, label %42, label %46

42:                                               ; preds = %34
  %43 = load ptr, ptr %3, align 8, !tbaa !32
  %44 = getelementptr inbounds nuw %struct.Aig_Tru_t_, ptr %43, i32 0, i32 0
  %45 = load ptr, ptr %44, align 8, !tbaa !34
  br label %47

46:                                               ; preds = %34
  br label %47

47:                                               ; preds = %46, %42
  %48 = phi ptr [ %45, %42 ], [ null, %46 ]
  store ptr %48, ptr %4, align 8, !tbaa !32
  br label %49

49:                                               ; preds = %77, %47
  %50 = load ptr, ptr %3, align 8, !tbaa !32
  %51 = icmp ne ptr %50, null
  br i1 %51, label %52, label %79

52:                                               ; preds = %49
  %53 = load ptr, ptr %2, align 8, !tbaa !3
  %54 = load ptr, ptr %3, align 8, !tbaa !32
  %55 = getelementptr inbounds nuw %struct.Aig_Tru_t_, ptr %54, i32 0, i32 3
  %56 = getelementptr inbounds [0 x i32], ptr %55, i64 0, i64 0
  %57 = load ptr, ptr %3, align 8, !tbaa !32
  %58 = getelementptr inbounds nuw %struct.Aig_Tru_t_, ptr %57, i32 0, i32 2
  %59 = load i32, ptr %58, align 4
  %60 = lshr i32 %59, 27
  %61 = call ptr @Aig_RManTableLookup(ptr noundef %53, ptr noundef %56, i32 noundef %60)
  store ptr %61, ptr %6, align 8, !tbaa !31
  %62 = load ptr, ptr %3, align 8, !tbaa !32
  %63 = load ptr, ptr %6, align 8, !tbaa !31
  store ptr %62, ptr %63, align 8, !tbaa !32
  %64 = load ptr, ptr %3, align 8, !tbaa !32
  %65 = getelementptr inbounds nuw %struct.Aig_Tru_t_, ptr %64, i32 0, i32 0
  store ptr null, ptr %65, align 8, !tbaa !34
  %66 = load i32, ptr %8, align 4, !tbaa !25
  %67 = add nsw i32 %66, 1
  store i32 %67, ptr %8, align 4, !tbaa !25
  br label %68

68:                                               ; preds = %52
  %69 = load ptr, ptr %4, align 8, !tbaa !32
  store ptr %69, ptr %3, align 8, !tbaa !32
  %70 = load ptr, ptr %3, align 8, !tbaa !32
  %71 = icmp ne ptr %70, null
  br i1 %71, label %72, label %76

72:                                               ; preds = %68
  %73 = load ptr, ptr %3, align 8, !tbaa !32
  %74 = getelementptr inbounds nuw %struct.Aig_Tru_t_, ptr %73, i32 0, i32 0
  %75 = load ptr, ptr %74, align 8, !tbaa !34
  br label %77

76:                                               ; preds = %68
  br label %77

77:                                               ; preds = %76, %72
  %78 = phi ptr [ %75, %72 ], [ null, %76 ]
  store ptr %78, ptr %4, align 8, !tbaa !32
  br label %49, !llvm.loop !41

79:                                               ; preds = %49
  br label %80

80:                                               ; preds = %79
  %81 = load i32, ptr %9, align 4, !tbaa !25
  %82 = add nsw i32 %81, 1
  store i32 %82, ptr %9, align 4, !tbaa !25
  br label %30, !llvm.loop !42

83:                                               ; preds = %30
  %84 = load ptr, ptr %5, align 8, !tbaa !31
  %85 = icmp ne ptr %84, null
  br i1 %85, label %86, label %88

86:                                               ; preds = %83
  %87 = load ptr, ptr %5, align 8, !tbaa !31
  call void @free(ptr noundef %87) #10
  store ptr null, ptr %5, align 8, !tbaa !31
  br label %89

88:                                               ; preds = %83
  br label %89

89:                                               ; preds = %88, %86
  call void @llvm.lifetime.end.p0(i64 8, ptr %10) #10
  call void @llvm.lifetime.end.p0(i64 4, ptr %9) #10
  call void @llvm.lifetime.end.p0(i64 4, ptr %8) #10
  call void @llvm.lifetime.end.p0(i64 4, ptr %7) #10
  call void @llvm.lifetime.end.p0(i64 8, ptr %6) #10
  call void @llvm.lifetime.end.p0(i64 8, ptr %5) #10
  call void @llvm.lifetime.end.p0(i64 8, ptr %4) #10
  call void @llvm.lifetime.end.p0(i64 8, ptr %3) #10
  ret void
}