; Function Attrs: nounwind uwtable
define void @Aig_RManTableResize(ptr noundef captures(none) %0) local_unnamed_addr #0 {
Abc_Clock.exit:
  %1 = alloca %struct.timespec, align 8
  call void @llvm.lifetime.start.p0(i64 16, ptr nonnull %1) #16
  %2 = call i32 @clock_gettime(i32 noundef 1, ptr noundef nonnull %1) #16
  call void @llvm.lifetime.end.p0(i64 16, ptr nonnull %1) #16
  %3 = getelementptr inbounds nuw i8, ptr %0, i64 24
  %4 = load ptr, ptr %3, align 8, !tbaa !18
  %5 = getelementptr inbounds nuw i8, ptr %0, i64 16
  %6 = load i32, ptr %5, align 8, !tbaa !17
  %7 = mul nsw i32 %6, 3
  %8 = add i32 %7, -1
  br label %.loopexit.i

.loopexit.i:                                      ; preds = %.loopexit.i.backedge, %Abc_Clock.exit
  %.012.i = phi i32 [ %8, %Abc_Clock.exit ], [ %9, %.loopexit.i.backedge ]
  %9 = add i32 %.012.i, 1
  %10 = and i32 %.012.i, 1
  %.not.not.i = icmp eq i32 %10, 0
  br i1 %.not.not.i, label %.preheader.i, label %.loopexit.i.backedge

.loopexit.i.backedge:                             ; preds = %.lr.ph.i, %.loopexit.i
  br label %.loopexit.i, !llvm.loop !14

.preheader.i:                                     ; preds = %.loopexit.i
  %.not15.i = icmp ult i32 %9, 9
  br i1 %.not15.i, label %Abc_PrimeCudd.exit, label %.lr.ph.i

11:                                               ; preds = %.lr.ph.i
  %12 = add nuw nsw i32 %.01116.i, 2
  %13 = mul nuw nsw i32 %12, %12
  %.not.i = icmp ugt i32 %13, %9
  br i1 %.not.i, label %Abc_PrimeCudd.exit, label %.lr.ph.i, !llvm.loop !16

.lr.ph.i:                                         ; preds = %.preheader.i, %11
  %.01116.i = phi i32 [ %12, %11 ], [ 3, %.preheader.i ]
  %14 = urem i32 %9, %.01116.i
  %15 = icmp eq i32 %14, 0
  br i1 %15, label %.loopexit.i.backedge, label %11, !llvm.loop !14

Abc_PrimeCudd.exit:                               ; preds = %.preheader.i, %11
  store i32 %9, ptr %5, align 8, !tbaa !17
  %16 = sext i32 %9 to i64
  %17 = call noalias ptr @calloc(i64 noundef %16, i64 noundef 8) #17
  store ptr %17, ptr %3, align 8, !tbaa !18
  %18 = icmp sgt i32 %6, 0
  br i1 %18, label %.lr.ph.preheader, label %._crit_edge48

.lr.ph.preheader:                                 ; preds = %Abc_PrimeCudd.exit
  %wide.trip.count = zext nneg i32 %6 to i64
  br label %.lr.ph

.lr.ph:                                           ; preds = %.lr.ph.preheader, %._crit_edge
  %indvars.iv = phi i64 [ 0, %.lr.ph.preheader ], [ %indvars.iv.next, %._crit_edge ]
  %19 = getelementptr inbounds nuw ptr, ptr %4, i64 %indvars.iv
  %20 = load ptr, ptr %19, align 8, !tbaa !26
  %.not30 = icmp eq ptr %20, null
  br i1 %.not30, label %._crit_edge, label %.lr.ph.preheader.i.i

.lr.ph.preheader.i.i:                             ; preds = %.lr.ph, %Aig_RManTableLookup.exit
  %.02743.sink = phi ptr [ %21, %Aig_RManTableLookup.exit ], [ %20, %.lr.ph ]
  %21 = load ptr, ptr %.02743.sink, align 8, !tbaa !30
  %22 = getelementptr inbounds nuw i8, ptr %.02743.sink, i64 16
  %23 = getelementptr inbounds nuw i8, ptr %.02743.sink, i64 12
  %24 = load i32, ptr %23, align 4
  %25 = lshr i32 %24, 27
  %26 = icmp ult i32 %24, 805306368
  %27 = add nsw i32 %25, -5
  %28 = shl nuw nsw i32 1, %27
  %29 = select i1 %26, i32 1, i32 %28
  %wide.trip.count.i.i = zext nneg i32 %29 to i64
  br label %.lr.ph.i.i

.lr.ph.i.i:                                       ; preds = %.lr.ph.i.i, %.lr.ph.preheader.i.i
  %indvars.iv.i.i = phi i64 [ 0, %.lr.ph.preheader.i.i ], [ %indvars.iv.next.i.i, %.lr.ph.i.i ]
  %.02.i.i = phi i32 [ 0, %.lr.ph.preheader.i.i ], [ %36, %.lr.ph.i.i ]
  %30 = getelementptr inbounds nuw i32, ptr %22, i64 %indvars.iv.i.i
  %31 = load i32, ptr %30, align 4, !tbaa !24
  %32 = and i64 %indvars.iv.i.i, 15
  %33 = getelementptr inbounds nuw i32, ptr @Aig_RManTableLookup.s_Primes, i64 %32
  %34 = load i32, ptr %33, align 4, !tbaa !24
  %35 = mul i32 %34, %31
  %36 = xor i32 %35, %.02.i.i
  %indvars.iv.next.i.i = add nuw nsw i64 %indvars.iv.i.i, 1
  %exitcond.not.i.i = icmp eq i64 %indvars.iv.next.i.i, %wide.trip.count.i.i
  br i1 %exitcond.not.i.i, label %Aig_RManTableHash.exit.i, label %.lr.ph.i.i, !llvm.loop !25

Aig_RManTableHash.exit.i:                         ; preds = %.lr.ph.i.i
  %37 = urem i32 %36, %9
  %38 = sext i32 %37 to i64
  %39 = getelementptr inbounds ptr, ptr %17, i64 %38
  %.022.i = load ptr, ptr %39, align 8, !tbaa !26
  %.not23.i = icmp eq ptr %.022.i, null
  br i1 %.not23.i, label %Aig_RManTableLookup.exit, label %.lr.ph.i33

.lr.ph.i33:                                       ; preds = %Aig_RManTableHash.exit.i, %Kit_TruthIsEqual.exit.i
  %.025.i = phi ptr [ %.0.i34, %Kit_TruthIsEqual.exit.i ], [ %.022.i, %Aig_RManTableHash.exit.i ]
  %.01324.i = phi ptr [ %.025.i, %Kit_TruthIsEqual.exit.i ], [ %39, %Aig_RManTableHash.exit.i ]
  %40 = getelementptr inbounds nuw i8, ptr %.025.i, i64 16
  br label %select.unfold.i.i

select.unfold.i.i:                                ; preds = %42, %.lr.ph.i33
  %indvars.iv.i16.i = phi i64 [ %wide.trip.count.i.i, %.lr.ph.i33 ], [ %43, %42 ]
  %41 = icmp sgt i64 %indvars.iv.i16.i, 0
  br i1 %41, label %42, label %Aig_RManTableLookup.exit

42:                                               ; preds = %select.unfold.i.i
  %43 = add nsw i64 %indvars.iv.i16.i, -1
  %44 = getelementptr inbounds nuw i32, ptr %40, i64 %43
  %45 = load i32, ptr %44, align 4, !tbaa !24
  %46 = getelementptr inbounds nuw i32, ptr %22, i64 %43
  %47 = load i32, ptr %46, align 4, !tbaa !24
  %.not.i.i = icmp eq i32 %45, %47
  br i1 %.not.i.i, label %select.unfold.i.i, label %Kit_TruthIsEqual.exit.i, !llvm.loop !28

Kit_TruthIsEqual.exit.i:                          ; preds = %42
  %.0.i34 = load ptr, ptr %.025.i, align 8, !tbaa !26
  %.not.i35 = icmp eq ptr %.0.i34, null
  br i1 %.not.i35, label %Aig_RManTableLookup.exit, label %.lr.ph.i33, !llvm.loop !29

Aig_RManTableLookup.exit:                         ; preds = %Kit_TruthIsEqual.exit.i, %select.unfold.i.i, %Aig_RManTableHash.exit.i
  %.01321.i = phi ptr [ %39, %Aig_RManTableHash.exit.i ], [ %.01324.i, %select.unfold.i.i ], [ %.025.i, %Kit_TruthIsEqual.exit.i ]
  store ptr %.02743.sink, ptr %.01321.i, align 8, !tbaa !26
  store ptr null, ptr %.02743.sink, align 8, !tbaa !30
  %.not32 = icmp eq ptr %21, null
  br i1 %.not32, label %._crit_edge, label %.lr.ph.preheader.i.i, !llvm.loop !32

._crit_edge:                                      ; preds = %Aig_RManTableLookup.exit, %.lr.ph
  %indvars.iv.next = add nuw nsw i64 %indvars.iv, 1
  %exitcond.not = icmp eq i64 %indvars.iv.next, %wide.trip.count
  br i1 %exitcond.not, label %._crit_edge48, label %.lr.ph, !llvm.loop !33

._crit_edge48:                                    ; preds = %._crit_edge, %Abc_PrimeCudd.exit
  %.not = icmp eq ptr %4, null
  br i1 %.not, label %49, label %48

48:                                               ; preds = %._crit_edge48
  call void @free(ptr noundef nonnull %4) #16
  br label %49

49:                                               ; preds = %._crit_edge48, %48
  ret void
}